target datalayout = "e-m:e-p270:32:32-p271:32:32-p272:64:64-i64:64-i128:128-f80:128-n8:16:32:64-S128"
target triple = "x86_64-pc-linux-gnu"

%struct.preference = type { ptr, ptr, ptr, i32, i32, i32, %union.anon, %union.anon.0, %union.anon.1, %union.anon.2, %struct.pref_custom_cbs, ptr, ptr }
%union.anon = type { ptr }
%union.anon.0 = type { ptr }
%union.anon.1 = type { ptr }
%union.anon.2 = type { %struct.anon }
%struct.anon = type { ptr, i8 }
%struct.pref_custom_cbs = type { ptr, ptr, ptr, ptr, ptr, ptr, ptr }
%struct.pref_module = type { ptr, ptr, ptr, ptr, ptr, ptr, ptr, ptr, i32, i32, i8, i8, i32 }
%struct.write_pref_arg_t = type { ptr, ptr }

@.str.10 = private unnamed_addr constant [1 x i8] zeroinitializer, align 1
@.str.1061 = private unnamed_addr constant [2 x i8] c"#\00", align 1
@.str.1062 = private unnamed_addr constant [6 x i8] c"\0A# %s\00", align 1
@.str.1063 = private unnamed_addr constant [2 x i8] c"\0A\00", align 1
@.str.1064 = private unnamed_addr constant [6 x i8] c"# %s\0A\00", align 1
@.str.1065 = private unnamed_addr constant [18 x i8] c"# No description\0A\00", align 1
@.str.1066 = private unnamed_addr constant [10 x i8] c"%s%s.%s: \00", align 1
@.str.1067 = private unnamed_addr constant [6 x i8] c"%s%s\0A\00", align 1

; Function Attrs: null_pointer_is_valid sspstrong uwtable
define internal void @write_pref(ptr noundef %0, ptr noundef %1) #1 {
  %3 = alloca ptr, align 8
  %4 = alloca ptr, align 8
  %5 = alloca ptr, align 8
  %6 = alloca ptr, align 8
  %7 = alloca ptr, align 8
  %8 = alloca i32, align 4
  %9 = alloca i32, align 4
  %10 = alloca i32, align 4
  %11 = alloca ptr, align 8
  %12 = alloca ptr, align 8
  %13 = alloca ptr, align 8
  %14 = alloca ptr, align 8
  store ptr %0, ptr %3, align 8
  store ptr %1, ptr %4, align 8
  call void @llvm.lifetime.start.p0(i64 8, ptr %5) #17
  %15 = load ptr, ptr %3, align 8
  store ptr %15, ptr %5, align 8
  call void @llvm.lifetime.start.p0(i64 8, ptr %6) #17
  %16 = load ptr, ptr %4, align 8
  store ptr %16, ptr %6, align 8
  call void @llvm.lifetime.start.p0(i64 8, ptr %7) #17
  call void @llvm.lifetime.start.p0(i64 4, ptr %8) #17
  call void @llvm.lifetime.start.p0(i64 4, ptr %9) #17
  %17 = load ptr, ptr %5, align 8
  %18 = getelementptr inbounds nuw %struct.preference, ptr %17, i32 0, i32 4
  %19 = load i32, ptr %18, align 4
  store i32 %19, ptr %9, align 4
  %20 = load i32, ptr %9, align 4
  %21 = and i32 %20, 1024
  %22 = icmp ne i32 %21, 0
  br i1 %22, label %23, label %24

23:                                               ; preds = %2
  store i32 1, ptr %10, align 4
  br label %229

24:                                               ; preds = %2
  %25 = load i32, ptr %9, align 4
  %26 = and i32 %25, -1025
  store i32 %26, ptr %9, align 4
  br label %27

27:                                               ; preds = %24
  %28 = load i32, ptr %9, align 4
  switch i32 %28, label %32 [
    i32 32, label %29
    i32 64, label %29
    i32 8192, label %30
    i32 65536, label %31
  ]

29:                                               ; preds = %27, %27
  store i32 1, ptr %10, align 4
  br label %229

30:                                               ; preds = %27
  store i32 1, ptr %10, align 4
  br label %229

31:                                               ; preds = %27
  store i32 1, ptr %10, align 4
  br label %229

32:                                               ; preds = %27
  br label %33

33:                                               ; preds = %32
  %34 = load ptr, ptr %5, align 8
  %35 = getelementptr inbounds nuw %struct.preference, ptr %34, i32 0, i32 4
  %36 = load i32, ptr %35, align 4
  %37 = icmp ne i32 %36, 512
  br i1 %37, label %45, label %38

38:                                               ; preds = %33
  %39 = load ptr, ptr %5, align 8
  %40 = getelementptr inbounds nuw %struct.preference, ptr %39, i32 0, i32 10
  %41 = getelementptr inbounds nuw %struct.pref_custom_cbs, ptr %40, i32 0, i32 3
  %42 = load ptr, ptr %41, align 8
  %43 = call ptr %42()
  %44 = icmp ne ptr %43, null
  br i1 %44, label %45, label %228

45:                                               ; preds = %38, %33
  call void @llvm.lifetime.start.p0(i64 8, ptr %11) #17
  %46 = load ptr, ptr %6, align 8
  %47 = getelementptr inbounds nuw %struct.write_pref_arg_t, ptr %46, i32 0, i32 0
  %48 = load ptr, ptr %47, align 8
  %49 = getelementptr inbounds nuw %struct.pref_module, ptr %48, i32 0, i32 0
  %50 = load ptr, ptr %49, align 8
  %51 = icmp ne ptr %50, null
  br i1 %51, label %52, label %58

52:                                               ; preds = %45
  %53 = load ptr, ptr %6, align 8
  %54 = getelementptr inbounds nuw %struct.write_pref_arg_t, ptr %53, i32 0, i32 0
  %55 = load ptr, ptr %54, align 8
  %56 = getelementptr inbounds nuw %struct.pref_module, ptr %55, i32 0, i32 0
  %57 = load ptr, ptr %56, align 8
  br label %66

58:                                               ; preds = %45
  %59 = load ptr, ptr %6, align 8
  %60 = getelementptr inbounds nuw %struct.write_pref_arg_t, ptr %59, i32 0, i32 0
  %61 = load ptr, ptr %60, align 8
  %62 = getelementptr inbounds nuw %struct.pref_module, ptr %61, i32 0, i32 6
  %63 = load ptr, ptr %62, align 8
  %64 = getelementptr inbounds nuw %struct.pref_module, ptr %63, i32 0, i32 0
  %65 = load ptr, ptr %64, align 8
  br label %66

66:                                               ; preds = %58, %52
  %67 = phi ptr [ %57, %52 ], [ %65, %58 ]
  store ptr %67, ptr %11, align 8
  call void @llvm.lifetime.start.p0(i64 8, ptr %12) #17
  call void @llvm.lifetime.start.p0(i64 8, ptr %13) #17
  call void @llvm.lifetime.start.p0(i64 8, ptr %14) #17
  %68 = load ptr, ptr %5, align 8
  %69 = call zeroext i1 @prefs_pref_is_default(ptr noundef %68)
  %70 = select i1 %69, ptr @.str.1061, ptr @.str.10
  store ptr %70, ptr %14, align 8
  %71 = load ptr, ptr %5, align 8
  %72 = getelementptr inbounds nuw %struct.preference, ptr %71, i32 0, i32 4
  %73 = load i32, ptr %72, align 4
  %74 = icmp eq i32 %73, 512
  br i1 %74, label %75, label %85

75:                                               ; preds = %66
  %76 = load ptr, ptr %6, align 8
  %77 = getelementptr inbounds nuw %struct.write_pref_arg_t, ptr %76, i32 0, i32 1
  %78 = load ptr, ptr %77, align 8
  %79 = load ptr, ptr %5, align 8
  %80 = getelementptr inbounds nuw %struct.preference, ptr %79, i32 0, i32 10
  %81 = getelementptr inbounds nuw %struct.pref_custom_cbs, ptr %80, i32 0, i32 3
  %82 = load ptr, ptr %81, align 8
  %83 = call ptr %82()
  %84 = call i32 (ptr, i32, ptr, ...) @__fprintf_chk(ptr noundef %78, i32 noundef 2, ptr noundef @.str.1062, ptr noundef %83)
  br label %85

85:                                               ; preds = %75, %66
  %86 = load ptr, ptr %6, align 8
  %87 = getelementptr inbounds nuw %struct.write_pref_arg_t, ptr %86, i32 0, i32 1
  %88 = load ptr, ptr %87, align 8
  %89 = call i32 (ptr, i32, ptr, ...) @__fprintf_chk(ptr noundef %88, i32 noundef 2, ptr noundef @.str.1063)
  %90 = load ptr, ptr %5, align 8
  %91 = getelementptr inbounds nuw %struct.preference, ptr %90, i32 0, i32 2
  %92 = load ptr, ptr %91, align 8
  %93 = icmp ne ptr %92, null
  br i1 %93, label %94, label %133

94:                                               ; preds = %85
  %95 = load ptr, ptr %5, align 8
  %96 = getelementptr inbounds nuw %struct.preference, ptr %95, i32 0, i32 2
  %97 = load ptr, ptr %96, align 8
  %98 = call i32 @g_ascii_strncasecmp(ptr noundef %97, ptr noundef @.str.10, i64 noundef 2)
  %99 = icmp ne i32 %98, 0
  br i1 %99, label %100, label %133

100:                                              ; preds = %94
  %101 = load ptr, ptr %5, align 8
  %102 = getelementptr inbounds nuw %struct.preference, ptr %101, i32 0, i32 4
  %103 = load i32, ptr %102, align 4
  %104 = icmp ne i32 %103, 512
  br i1 %104, label %105, label %132

105:                                              ; preds = %100
  %106 = load ptr, ptr %5, align 8
  %107 = getelementptr inbounds nuw %struct.preference, ptr %106, i32 0, i32 2
  %108 = load ptr, ptr %107, align 8
  %109 = call ptr @g_strsplit(ptr noundef %108, ptr noundef @.str.1063, i32 noundef 0)
  store ptr %109, ptr %7, align 8
  store i32 0, ptr %8, align 4
  br label %110

110:                                              ; preds = %127, %105
  %111 = load ptr, ptr %7, align 8
  %112 = load i32, ptr %8, align 4
  %113 = sext i32 %112 to i64
  %114 = getelementptr ptr, ptr %111, i64 %113
  %115 = load ptr, ptr %114, align 8
  %116 = icmp ne ptr %115, null
  br i1 %116, label %117, label %130

117:                                              ; preds = %110
  %118 = load ptr, ptr %6, align 8
  %119 = getelementptr inbounds nuw %struct.write_pref_arg_t, ptr %118, i32 0, i32 1
  %120 = load ptr, ptr %119, align 8
  %121 = load ptr, ptr %7, align 8
  %122 = load i32, ptr %8, align 4
  %123 = sext i32 %122 to i64
  %124 = getelementptr ptr, ptr %121, i64 %123
  %125 = load ptr, ptr %124, align 8
  %126 = call i32 (ptr, i32, ptr, ...) @__fprintf_chk(ptr noundef %120, i32 noundef 2, ptr noundef @.str.1064, ptr noundef %125)
  br label %127

127:                                              ; preds = %117
  %128 = load i32, ptr %8, align 4
  %129 = add i32 %128, 1
  store i32 %129, ptr %8, align 4
  br label %110, !llvm.loop !71

130:                                              ; preds = %110
  %131 = load ptr, ptr %7, align 8
  call void @g_strfreev(ptr noundef %131)
  br label %132

132:                                              ; preds = %130, %100
  br label %138

133:                                              ; preds = %94, %85
  %134 = load ptr, ptr %6, align 8
  %135 = getelementptr inbounds nuw %struct.write_pref_arg_t, ptr %134, i32 0, i32 1
  %136 = load ptr, ptr %135, align 8
  %137 = call i32 (ptr, i32, ptr, ...) @__fprintf_chk(ptr noundef %136, i32 noundef 2, ptr noundef @.str.1065)
  br label %138

138:                                              ; preds = %133, %132
  %139 = load ptr, ptr %5, align 8
  %140 = call ptr @prefs_pref_type_description(ptr noundef %139)
  store ptr %140, ptr %12, align 8
  %141 = load ptr, ptr %12, align 8
  %142 = call ptr @g_strsplit(ptr noundef %141, ptr noundef @.str.1063, i32 noundef 0)
  store ptr %142, ptr %7, align 8
  store i32 0, ptr %8, align 4
  br label %143

143:                                              ; preds = %160, %138
  %144 = load ptr, ptr %7, align 8
  %145 = load i32, ptr %8, align 4
  %146 = sext i32 %145 to i64
  %147 = getelementptr ptr, ptr %144, i64 %146
  %148 = load ptr, ptr %147, align 8
  %149 = icmp ne ptr %148, null
  br i1 %149, label %150, label %163

150:                                              ; preds = %143
  %151 = load ptr, ptr %6, align 8
  %152 = getelementptr inbounds nuw %struct.write_pref_arg_t, ptr %151, i32 0, i32 1
  %153 = load ptr, ptr %152, align 8
  %154 = load ptr, ptr %7, align 8
  %155 = load i32, ptr %8, align 4
  %156 = sext i32 %155 to i64
  %157 = getelementptr ptr, ptr %154, i64 %156
  %158 = load ptr, ptr %157, align 8
  %159 = call i32 (ptr, i32, ptr, ...) @__fprintf_chk(ptr noundef %153, i32 noundef 2, ptr noundef @.str.1064, ptr noundef %158)
  br label %160

160:                                              ; preds = %150
  %161 = load i32, ptr %8, align 4
  %162 = add i32 %161, 1
  store i32 %162, ptr %8, align 4
  br label %143, !llvm.loop !72

163:                                              ; preds = %143
  %164 = load ptr, ptr %7, align 8
  call void @g_strfreev(ptr noundef %164)
  %165 = load ptr, ptr %12, align 8
  call void @g_free(ptr noundef %165)
  %166 = load ptr, ptr %5, align 8
  %167 = call ptr @prefs_pref_to_str(ptr noundef %166, i32 noundef 2)
  store ptr %167, ptr %13, align 8
  %168 = load ptr, ptr %6, align 8
  %169 = getelementptr inbounds nuw %struct.write_pref_arg_t, ptr %168, i32 0, i32 1
  %170 = load ptr, ptr %169, align 8
  %171 = load ptr, ptr %14, align 8
  %172 = load ptr, ptr %11, align 8
  %173 = load ptr, ptr %5, align 8
  %174 = getelementptr inbounds nuw %struct.preference, ptr %173, i32 0, i32 0
  %175 = load ptr, ptr %174, align 8
  %176 = call i32 (ptr, i32, ptr, ...) @__fprintf_chk(ptr noundef %170, i32 noundef 2, ptr noundef @.str.1066, ptr noundef %171, ptr noundef %172, ptr noundef %175)
  %177 = load ptr, ptr %5, align 8
  %178 = getelementptr inbounds nuw %struct.preference, ptr %177, i32 0, i32 4
  %179 = load i32, ptr %178, align 4
  %180 = icmp ne i32 %179, 32768
  br i1 %180, label %181, label %221

181:                                              ; preds = %163
  %182 = load ptr, ptr %13, align 8
  %183 = call ptr @g_strsplit(ptr noundef %182, ptr noundef @.str.1063, i32 noundef 0)
  store ptr %183, ptr %7, align 8
  store i32 0, ptr %8, align 4
  br label %184

184:                                              ; preds = %208, %181
  %185 = load ptr, ptr %7, align 8
  %186 = load i32, ptr %8, align 4
  %187 = sext i32 %186 to i64
  %188 = getelementptr ptr, ptr %185, i64 %187
  %189 = load ptr, ptr %188, align 8
  %190 = icmp ne ptr %189, null
  br i1 %190, label %191, label %211

191:                                              ; preds = %184
  %192 = load ptr, ptr %6, align 8
  %193 = getelementptr inbounds nuw %struct.write_pref_arg_t, ptr %192, i32 0, i32 1
  %194 = load ptr, ptr %193, align 8
  %195 = load i32, ptr %8, align 4
  %196 = icmp eq i32 %195, 0
  br i1 %196, label %197, label %198

197:                                              ; preds = %191
  br label %200

198:                                              ; preds = %191
  %199 = load ptr, ptr %14, align 8
  br label %200

200:                                              ; preds = %198, %197
  %201 = phi ptr [ @.str.10, %197 ], [ %199, %198 ]
  %202 = load ptr, ptr %7, align 8
  %203 = load i32, ptr %8, align 4
  %204 = sext i32 %203 to i64
  %205 = getelementptr ptr, ptr %202, i64 %204
  %206 = load ptr, ptr %205, align 8
  %207 = call i32 (ptr, i32, ptr, ...) @__fprintf_chk(ptr noundef %194, i32 noundef 2, ptr noundef @.str.1067, ptr noundef %201, ptr noundef %206)
  br label %208

208:                                              ; preds = %200
  %209 = load i32, ptr %8, align 4
  %210 = add i32 %209, 1
  store i32 %210, ptr %8, align 4
  br label %184, !llvm.loop !73

211:                                              ; preds = %184
  %212 = load i32, ptr %8, align 4
  %213 = icmp eq i32 %212, 0
  br i1 %213, label %214, label %219

214:                                              ; preds = %211
  %215 = load ptr, ptr %6, align 8
  %216 = getelementptr inbounds nuw %struct.write_pref_arg_t, ptr %215, i32 0, i32 1
  %217 = load ptr, ptr %216, align 8
  %218 = call i32 (ptr, i32, ptr, ...) @__fprintf_chk(ptr noundef %217, i32 noundef 2, ptr noundef @.str.1063)
  br label %219

219:                                              ; preds = %214, %211
  %220 = load ptr, ptr %7, align 8
  call void @g_strfreev(ptr noundef %220)
  br label %226

221:                                              ; preds = %163
  %222 = load ptr, ptr %6, align 8
  %223 = getelementptr inbounds nuw %struct.write_pref_arg_t, ptr %222, i32 0, i32 1
  %224 = load ptr, ptr %223, align 8
  %225 = call i32 (ptr, i32, ptr, ...) @__fprintf_chk(ptr noundef %224, i32 noundef 2, ptr noundef @.str.1063)
  br label %226

226:                                              ; preds = %221, %219
  %227 = load ptr, ptr %13, align 8
  call void @g_free(ptr noundef %227)
  call void @llvm.lifetime.end.p0(i64 8, ptr %14) #17
  call void @llvm.lifetime.end.p0(i64 8, ptr %13) #17
  call void @llvm.lifetime.end.p0(i64 8, ptr %12) #17
  call void @llvm.lifetime.end.p0(i64 8, ptr %11) #17
  br label %228

228:                                              ; preds = %226, %38
  store i32 0, ptr %10, align 4
  br label %229

229:                                              ; preds = %228, %31, %30, %29, %23
  call void @llvm.lifetime.end.p0(i64 4, ptr %9) #17
  call void @llvm.lifetime.end.p0(i64 4, ptr %8) #17
  call void @llvm.lifetime.end.p0(i64 8, ptr %7) #17
  call void @llvm.lifetime.end.p0(i64 8, ptr %6) #17
  call void @llvm.lifetime.end.p0(i64 8, ptr %5) #17
  %230 = load i32, ptr %10, align 4
  switch i32 %230, label %232 [
    i32 0, label %231
    i32 1, label %231
  ]

231:                                              ; preds = %229, %229
  ret void

232:                                              ; preds = %229
  unreachable
}