; Function Attrs: null_pointer_is_valid sspstrong uwtable
define internal void @write_pref(ptr noundef %0, ptr noundef readonly captures(none) %1) #1 {
  %3 = getelementptr inbounds nuw i8, ptr %0, i64 28
  %4 = load i32, ptr %3, align 4
  %5 = and i32 %4, 1024
  %.not = icmp eq i32 %5, 0
  br i1 %.not, label %6, label %91

6:                                                ; preds = %2
  switch i32 %4, label %11 [
    i32 32, label %91
    i32 64, label %91
    i32 8192, label %91
    i32 65536, label %91
    i32 512, label %7
  ]

7:                                                ; preds = %6
  %8 = getelementptr inbounds nuw i8, ptr %0, i64 104
  %9 = load ptr, ptr %8, align 8
  %10 = tail call ptr %9()
  %.not63 = icmp eq ptr %10, null
  br i1 %.not63, label %91, label %11

11:                                               ; preds = %6, %7
  %12 = load ptr, ptr %1, align 8
  %13 = load ptr, ptr %12, align 8
  %.not64 = icmp eq ptr %13, null
  br i1 %.not64, label %14, label %18

14:                                               ; preds = %11
  %15 = getelementptr inbounds nuw i8, ptr %12, i64 48
  %16 = load ptr, ptr %15, align 8
  %17 = load ptr, ptr %16, align 8
  br label %18

18:                                               ; preds = %11, %14
  %19 = phi ptr [ %17, %14 ], [ %13, %11 ]
  %20 = tail call zeroext i1 @prefs_pref_is_default(ptr noundef %0)
  %21 = select i1 %20, ptr @.str.1061, ptr @.str.10
  %22 = load i32, ptr %3, align 4
  %23 = icmp eq i32 %22, 512
  br i1 %23, label %24, label %31

24:                                               ; preds = %18
  %25 = getelementptr inbounds nuw i8, ptr %1, i64 8
  %26 = load ptr, ptr %25, align 8
  %27 = getelementptr inbounds nuw i8, ptr %0, i64 104
  %28 = load ptr, ptr %27, align 8
  %29 = tail call ptr %28()
  %30 = tail call i32 (ptr, i32, ptr, ...) @__fprintf_chk(ptr noundef %26, i32 noundef 2, ptr noundef nonnull @.str.1062, ptr noundef %29)
  br label %31

31:                                               ; preds = %24, %18
  %32 = getelementptr inbounds nuw i8, ptr %1, i64 8
  %33 = load ptr, ptr %32, align 8
  %34 = tail call i32 (ptr, i32, ptr, ...) @__fprintf_chk(ptr noundef %33, i32 noundef 2, ptr noundef nonnull @.str.1063)
  %35 = getelementptr inbounds nuw i8, ptr %0, i64 16
  %36 = load ptr, ptr %35, align 8
  %.not65 = icmp eq ptr %36, null
  br i1 %.not65, label %52, label %37

37:                                               ; preds = %31
  %38 = tail call i32 @g_ascii_strncasecmp(ptr noundef nonnull %36, ptr noundef nonnull @.str.10, i64 noundef 2)
  %.not66 = icmp eq i32 %38, 0
  br i1 %.not66, label %52, label %39

39:                                               ; preds = %37
  %40 = load i32, ptr %3, align 4
  %.not67 = icmp eq i32 %40, 512
  br i1 %.not67, label %55, label %41

41:                                               ; preds = %39
  %42 = load ptr, ptr %35, align 8
  %43 = tail call ptr @g_strsplit(ptr noundef %42, ptr noundef nonnull @.str.1063, i32 noundef 0)
  %44 = load ptr, ptr %43, align 8
  %.not6872 = icmp eq ptr %44, null
  br i1 %.not6872, label %._crit_edge, label %.lr.ph

.lr.ph:                                           ; preds = %41, %.lr.ph
  %45 = phi ptr [ %51, %.lr.ph ], [ %44, %41 ]
  %.073 = phi i32 [ %48, %.lr.ph ], [ 0, %41 ]
  %46 = load ptr, ptr %32, align 8
  %47 = tail call i32 (ptr, i32, ptr, ...) @__fprintf_chk(ptr noundef %46, i32 noundef 2, ptr noundef nonnull @.str.1064, ptr noundef nonnull %45)
  %48 = add i32 %.073, 1
  %49 = sext i32 %48 to i64
  %50 = getelementptr ptr, ptr %43, i64 %49
  %51 = load ptr, ptr %50, align 8
  %.not68 = icmp eq ptr %51, null
  br i1 %.not68, label %._crit_edge, label %.lr.ph, !llvm.loop !71

._crit_edge:                                      ; preds = %.lr.ph, %41
  tail call void @g_strfreev(ptr noundef %43)
  br label %55

52:                                               ; preds = %37, %31
  %53 = load ptr, ptr %32, align 8
  %54 = tail call i32 (ptr, i32, ptr, ...) @__fprintf_chk(ptr noundef %53, i32 noundef 2, ptr noundef nonnull @.str.1065)
  br label %55

55:                                               ; preds = %39, %._crit_edge, %52
  %56 = tail call ptr @prefs_pref_type_description(ptr noundef %0)
  %57 = tail call ptr @g_strsplit(ptr noundef %56, ptr noundef nonnull @.str.1063, i32 noundef 0)
  %58 = load ptr, ptr %57, align 8
  %.not6974 = icmp eq ptr %58, null
  br i1 %.not6974, label %._crit_edge78, label %.lr.ph77

.lr.ph77:                                         ; preds = %55, %.lr.ph77
  %59 = phi ptr [ %65, %.lr.ph77 ], [ %58, %55 ]
  %.175 = phi i32 [ %62, %.lr.ph77 ], [ 0, %55 ]
  %60 = load ptr, ptr %32, align 8
  %61 = tail call i32 (ptr, i32, ptr, ...) @__fprintf_chk(ptr noundef %60, i32 noundef 2, ptr noundef nonnull @.str.1064, ptr noundef nonnull %59)
  %62 = add i32 %.175, 1
  %63 = sext i32 %62 to i64
  %64 = getelementptr ptr, ptr %57, i64 %63
  %65 = load ptr, ptr %64, align 8
  %.not69 = icmp eq ptr %65, null
  br i1 %.not69, label %._crit_edge78, label %.lr.ph77, !llvm.loop !72

._crit_edge78:                                    ; preds = %.lr.ph77, %55
  tail call void @g_strfreev(ptr noundef %57)
  tail call void @g_free(ptr noundef %56)
  %66 = tail call ptr @prefs_pref_to_str(ptr noundef %0, i32 noundef 2)
  %67 = load ptr, ptr %32, align 8
  %68 = load ptr, ptr %0, align 8
  %69 = tail call i32 (ptr, i32, ptr, ...) @__fprintf_chk(ptr noundef %67, i32 noundef 2, ptr noundef nonnull @.str.1066, ptr noundef nonnull %21, ptr noundef %19, ptr noundef %68)
  %70 = load i32, ptr %3, align 4
  %.not70 = icmp eq i32 %70, 32768
  br i1 %.not70, label %87, label %71

71:                                               ; preds = %._crit_edge78
  %72 = tail call ptr @g_strsplit(ptr noundef %66, ptr noundef nonnull @.str.1063, i32 noundef 0)
  %73 = load ptr, ptr %72, align 8
  %.not7179 = icmp eq ptr %73, null
  br i1 %.not7179, label %._crit_edge83.thread, label %.lr.ph82

.lr.ph82:                                         ; preds = %71, %.lr.ph82
  %74 = phi ptr [ %82, %.lr.ph82 ], [ %73, %71 ]
  %.280 = phi i32 [ %79, %.lr.ph82 ], [ 0, %71 ]
  %75 = load ptr, ptr %32, align 8
  %76 = icmp eq i32 %.280, 0
  %77 = select i1 %76, ptr @.str.10, ptr %21
  %78 = tail call i32 (ptr, i32, ptr, ...) @__fprintf_chk(ptr noundef %75, i32 noundef 2, ptr noundef nonnull @.str.1067, ptr noundef nonnull %77, ptr noundef nonnull %74)
  %79 = add i32 %.280, 1
  %80 = sext i32 %79 to i64
  %81 = getelementptr ptr, ptr %72, i64 %80
  %82 = load ptr, ptr %81, align 8
  %.not71 = icmp eq ptr %82, null
  br i1 %.not71, label %._crit_edge83, label %.lr.ph82, !llvm.loop !73

._crit_edge83:                                    ; preds = %.lr.ph82
  %83 = icmp eq i32 %79, 0
  br i1 %83, label %._crit_edge83.thread, label %86

._crit_edge83.thread:                             ; preds = %71, %._crit_edge83
  %84 = load ptr, ptr %32, align 8
  %85 = tail call i32 (ptr, i32, ptr, ...) @__fprintf_chk(ptr noundef %84, i32 noundef 2, ptr noundef nonnull @.str.1063)
  br label %86

86:                                               ; preds = %._crit_edge83.thread, %._crit_edge83
  tail call void @g_strfreev(ptr noundef %72)
  br label %90

87:                                               ; preds = %._crit_edge78
  %88 = load ptr, ptr %32, align 8
  %89 = tail call i32 (ptr, i32, ptr, ...) @__fprintf_chk(ptr noundef %88, i32 noundef 2, ptr noundef nonnull @.str.1063)
  br label %90

90:                                               ; preds = %87, %86
  tail call void @g_free(ptr noundef %66)
  br label %91

91:                                               ; preds = %7, %90, %6, %6, %6, %6, %2
  ret void
}